target datalayout = "e-m:e-p270:32:32-p271:32:32-p272:64:64-i64:64-i128:128-f80:128-n8:16:32:64-S128"
target triple = "x86_64-pc-linux-gnu"

@.str.6 = private unnamed_addr constant [30 x i8] c"Unable to retrieve target CRS\00", align 1
@.str.7 = private unnamed_addr constant [44 x i8] c"Unable to get target CRS coordinate system.\00", align 1
@.str.8 = private unnamed_addr constant [4 x i8] c"lon\00", align 1
@.str.9 = private unnamed_addr constant [4 x i8] c"Lon\00", align 1

; Function Attrs: mustprogress uwtable
define internal noundef ptr @_ZL14get_output_crsP6pj_ctxP8PJconsts12PJ_DIRECTION(ptr noundef %0, ptr noundef %1, i32 noundef %2) #0 {
  %4 = alloca ptr, align 8
  %5 = alloca ptr, align 8
  %6 = alloca ptr, align 8
  %7 = alloca i32, align 4
  store ptr %0, ptr %5, align 8, !tbaa !3
  store ptr %1, ptr %6, align 8, !tbaa !8
  store i32 %2, ptr %7, align 4, !tbaa !10
  %8 = load i32, ptr %7, align 4, !tbaa !10
  %9 = icmp eq i32 %8, 1
  br i1 %9, label %10, label %14

10:                                               ; preds = %3
  %11 = load ptr, ptr %5, align 8, !tbaa !3
  %12 = load ptr, ptr %6, align 8, !tbaa !8
  %13 = call ptr @proj_get_target_crs(ptr noundef %11, ptr noundef %12)
  store ptr %13, ptr %4, align 8
  br label %18

14:                                               ; preds = %3
  %15 = load ptr, ptr %5, align 8, !tbaa !3
  %16 = load ptr, ptr %6, align 8, !tbaa !8
  %17 = call ptr @proj_get_source_crs(ptr noundef %15, ptr noundef %16)
  store ptr %17, ptr %4, align 8
  br label %18

18:                                               ; preds = %14, %10
  %19 = load ptr, ptr %4, align 8
  ret ptr %19
}

; Function Attrs: mustprogress uwtable
define internal noundef i32 @_ZL24target_crs_lon_lat_orderP6pj_ctxP8PJconsts12PJ_DIRECTION(ptr noundef %0, ptr noundef %1, i32 noundef %2) #0 {
  %4 = alloca i32, align 4
  %5 = alloca ptr, align 8
  %6 = alloca ptr, align 8
  %7 = alloca i32, align 4
  %8 = alloca ptr, align 8
  %9 = alloca i32, align 4
  %10 = alloca ptr, align 8
  %11 = alloca ptr, align 8
  %12 = alloca ptr, align 8
  %13 = alloca i32, align 4
  store ptr %0, ptr %5, align 8, !tbaa !3
  store ptr %1, ptr %6, align 8, !tbaa !8
  store i32 %2, ptr %7, align 4, !tbaa !10
  call void @llvm.lifetime.start.p0(i64 8, ptr %8) #15
  %14 = load ptr, ptr %5, align 8, !tbaa !3
  %15 = load ptr, ptr %6, align 8, !tbaa !8
  %16 = load i32, ptr %7, align 4, !tbaa !10
  %17 = call noundef ptr @_ZL14get_output_crsP6pj_ctxP8PJconsts12PJ_DIRECTION(ptr noundef %14, ptr noundef %15, i32 noundef %16)
  store ptr %17, ptr %8, align 8, !tbaa !8
  %18 = load ptr, ptr %8, align 8, !tbaa !8
  %19 = icmp eq ptr %18, null
  br i1 %19, label %20, label %22

20:                                               ; preds = %3
  %21 = load ptr, ptr %5, align 8, !tbaa !3
  call void (ptr, ptr, ...) @_Z22proj_context_log_debugP6pj_ctxPKcz(ptr noundef %21, ptr noundef @.str.6)
  store i32 -1, ptr %4, align 4
  store i32 1, ptr %9, align 4
  br label %75

22:                                               ; preds = %3
  call void @llvm.lifetime.start.p0(i64 8, ptr %10) #15
  %23 = load ptr, ptr %8, align 8, !tbaa !8
  %24 = call i32 @proj_get_type(ptr noundef %23)
  %25 = icmp eq i32 %24, 16
  br i1 %25, label %26, label %42

26:                                               ; preds = %22
  call void @llvm.lifetime.start.p0(i64 8, ptr %11) #15
  %27 = load ptr, ptr %5, align 8, !tbaa !3
  %28 = load ptr, ptr %8, align 8, !tbaa !8
  %29 = call ptr @proj_crs_get_sub_crs(ptr noundef %27, ptr noundef %28, i32 noundef 0)
  store ptr %29, ptr %11, align 8, !tbaa !8
  %30 = load ptr, ptr %11, align 8, !tbaa !8
  %31 = icmp ne ptr %30, null
  br i1 %31, label %33, label %32

32:                                               ; preds = %26
  store i32 -1, ptr %4, align 4
  store i32 1, ptr %9, align 4
  br label %39

33:                                               ; preds = %26
  %34 = load ptr, ptr %5, align 8, !tbaa !3
  %35 = load ptr, ptr %11, align 8, !tbaa !8
  %36 = call ptr @proj_crs_get_coordinate_system(ptr noundef %34, ptr noundef %35)
  store ptr %36, ptr %10, align 8, !tbaa !8
  %37 = load ptr, ptr %11, align 8, !tbaa !8
  %38 = call ptr @proj_destroy(ptr noundef %37)
  store i32 0, ptr %9, align 4
  br label %39

39:                                               ; preds = %33, %32
  call void @llvm.lifetime.end.p0(i64 8, ptr %11) #15
  %40 = load i32, ptr %9, align 4
  switch i32 %40, label %74 [
    i32 0, label %41
  ]

41:                                               ; preds = %39
  br label %46

42:                                               ; preds = %22
  %43 = load ptr, ptr %5, align 8, !tbaa !3
  %44 = load ptr, ptr %8, align 8, !tbaa !8
  %45 = call ptr @proj_crs_get_coordinate_system(ptr noundef %43, ptr noundef %44)
  store ptr %45, ptr %10, align 8, !tbaa !8
  br label %46

46:                                               ; preds = %42, %41
  %47 = load ptr, ptr %8, align 8, !tbaa !8
  %48 = call ptr @proj_destroy(ptr noundef %47)
  %49 = load ptr, ptr %10, align 8, !tbaa !8
  %50 = icmp eq ptr %49, null
  br i1 %50, label %51, label %53

51:                                               ; preds = %46
  %52 = load ptr, ptr %5, align 8, !tbaa !3
  call void (ptr, ptr, ...) @_Z22proj_context_log_debugP6pj_ctxPKcz(ptr noundef %52, ptr noundef @.str.7)
  store i32 -1, ptr %4, align 4
  store i32 1, ptr %9, align 4
  br label %74

53:                                               ; preds = %46
  call void @llvm.lifetime.start.p0(i64 8, ptr %12) #15
  store ptr null, ptr %12, align 8, !tbaa !37
  call void @llvm.lifetime.start.p0(i64 4, ptr %13) #15
  %54 = load ptr, ptr %5, align 8, !tbaa !3
  %55 = load ptr, ptr %10, align 8, !tbaa !8
  %56 = call i32 @proj_cs_get_axis_info(ptr noundef %54, ptr noundef %55, i32 noundef 0, ptr noundef null, ptr noundef %12, ptr noundef null, ptr noundef null, ptr noundef null, ptr noundef null, ptr noundef null)
  store i32 %56, ptr %13, align 4, !tbaa !16
  %57 = load ptr, ptr %10, align 8, !tbaa !8
  %58 = call ptr @proj_destroy(ptr noundef %57)
  %59 = load i32, ptr %13, align 4, !tbaa !16
  %60 = icmp ne i32 %59, 1
  br i1 %60, label %61, label %62

61:                                               ; preds = %53
  store i32 -1, ptr %4, align 4
  store i32 1, ptr %9, align 4
  br label %73

62:                                               ; preds = %53
  %63 = load ptr, ptr %12, align 8, !tbaa !37
  %64 = call i32 @strcmp(ptr noundef %63, ptr noundef @.str.8) #16
  %65 = icmp eq i32 %64, 0
  br i1 %65, label %70, label %66

66:                                               ; preds = %62
  %67 = load ptr, ptr %12, align 8, !tbaa !37
  %68 = call i32 @strcmp(ptr noundef %67, ptr noundef @.str.9) #16
  %69 = icmp eq i32 %68, 0
  br label %70

70:                                               ; preds = %66, %62
  %71 = phi i1 [ true, %62 ], [ %69, %66 ]
  %72 = zext i1 %71 to i32
  store i32 %72, ptr %4, align 4
  store i32 1, ptr %9, align 4
  br label %73

73:                                               ; preds = %70, %61
  call void @llvm.lifetime.end.p0(i64 4, ptr %13) #15
  call void @llvm.lifetime.end.p0(i64 8, ptr %12) #15
  br label %74

74:                                               ; preds = %73, %51, %39
  call void @llvm.lifetime.end.p0(i64 8, ptr %10) #15
  br label %75

75:                                               ; preds = %74, %20
  call void @llvm.lifetime.end.p0(i64 8, ptr %8) #15
  %76 = load i32, ptr %4, align 4
  ret i32 %76
}