; Function Attrs: mustprogress uwtable
define internal fastcc noundef range(i32 -1, 2) i32 @_ZL24target_crs_lon_lat_orderP6pj_ctxP8PJconsts12PJ_DIRECTION(ptr noundef %0, ptr noundef nonnull %1, i32 noundef %2) unnamed_addr #0 {
  %4 = alloca ptr, align 8
  %5 = icmp eq i32 %2, 1
  br i1 %5, label %6, label %8

6:                                                ; preds = %3
  %7 = tail call ptr @proj_get_target_crs(ptr noundef %0, ptr noundef nonnull %1)
  br label %_ZL14get_output_crsP6pj_ctxP8PJconsts12PJ_DIRECTION.exit

8:                                                ; preds = %3
  %9 = tail call ptr @proj_get_source_crs(ptr noundef %0, ptr noundef nonnull %1)
  br label %_ZL14get_output_crsP6pj_ctxP8PJconsts12PJ_DIRECTION.exit

_ZL14get_output_crsP6pj_ctxP8PJconsts12PJ_DIRECTION.exit: ; preds = %6, %8
  %.0.i = phi ptr [ %7, %6 ], [ %9, %8 ]
  %10 = icmp eq ptr %.0.i, null
  br i1 %10, label %11, label %12

11:                                               ; preds = %_ZL14get_output_crsP6pj_ctxP8PJconsts12PJ_DIRECTION.exit
  tail call void (ptr, ptr, ...) @_Z22proj_context_log_debugP6pj_ctxPKcz(ptr noundef %0, ptr noundef nonnull @.str.6)
  br label %.thread

12:                                               ; preds = %_ZL14get_output_crsP6pj_ctxP8PJconsts12PJ_DIRECTION.exit
  %13 = tail call i32 @proj_get_type(ptr noundef nonnull %.0.i)
  %14 = icmp eq i32 %13, 16
  br i1 %14, label %15, label %20

15:                                               ; preds = %12
  %16 = tail call ptr @proj_crs_get_sub_crs(ptr noundef %0, ptr noundef nonnull %.0.i, i32 noundef 0)
  %.not.not = icmp eq ptr %16, null
  br i1 %.not.not, label %.thread, label %17

17:                                               ; preds = %15
  %18 = tail call ptr @proj_crs_get_coordinate_system(ptr noundef %0, ptr noundef nonnull %16)
  %19 = tail call ptr @proj_destroy(ptr noundef nonnull %16)
  br label %22

20:                                               ; preds = %12
  %21 = tail call ptr @proj_crs_get_coordinate_system(ptr noundef %0, ptr noundef nonnull %.0.i)
  br label %22

22:                                               ; preds = %17, %20
  %.124 = phi ptr [ %18, %17 ], [ %21, %20 ]
  %23 = tail call ptr @proj_destroy(ptr noundef nonnull %.0.i)
  %24 = icmp eq ptr %.124, null
  br i1 %24, label %25, label %26

25:                                               ; preds = %22
  tail call void (ptr, ptr, ...) @_Z22proj_context_log_debugP6pj_ctxPKcz(ptr noundef %0, ptr noundef nonnull @.str.7)
  br label %.thread

26:                                               ; preds = %22
  call void @llvm.lifetime.start.p0(i64 8, ptr nonnull %4) #12
  store ptr null, ptr %4, align 8, !tbaa !18
  %27 = call i32 @proj_cs_get_axis_info(ptr noundef %0, ptr noundef nonnull %.124, i32 noundef 0, ptr noundef null, ptr noundef nonnull %4, ptr noundef null, ptr noundef null, ptr noundef null, ptr noundef null, ptr noundef null)
  %28 = call ptr @proj_destroy(ptr noundef nonnull %.124)
  %.not = icmp eq i32 %27, 1
  br i1 %.not, label %29, label %37

29:                                               ; preds = %26
  %30 = load ptr, ptr %4, align 8, !tbaa !18
  %31 = call i32 @strcmp(ptr noundef nonnull dereferenceable(1) %30, ptr noundef nonnull dereferenceable(4) @.str.8) #13
  %32 = icmp eq i32 %31, 0
  br i1 %32, label %37, label %33

33:                                               ; preds = %29
  %34 = call i32 @strcmp(ptr noundef nonnull dereferenceable(1) %30, ptr noundef nonnull dereferenceable(4) @.str.9) #13
  %35 = icmp eq i32 %34, 0
  %36 = zext i1 %35 to i32
  br label %37

37:                                               ; preds = %29, %33, %26
  %.3 = phi i32 [ -1, %26 ], [ 1, %29 ], [ %36, %33 ]
  call void @llvm.lifetime.end.p0(i64 8, ptr nonnull %4) #12
  br label %.thread

.thread:                                          ; preds = %15, %25, %37, %11
  %.0 = phi i32 [ -1, %11 ], [ -1, %25 ], [ %.3, %37 ], [ -1, %15 ]
  ret i32 %.0
}